target datalayout = "e-m:e-p270:32:32-p271:32:32-p272:64:64-i64:64-i128:128-f80:128-n8:16:32:64-S128"
target triple = "x86_64-pc-linux-gnu"

%struct._zval_struct = type { %union._zend_value, %union.anon, %union.anon.2 }
%union._zend_value = type { i64 }
%union.anon = type { i32 }
%union.anon.2 = type { i32 }
%struct._zend_string = type { %struct._zend_refcounted_h, i64, i64, [1 x i8] }
%struct._zend_refcounted_h = type { i32, %union.anon.3 }
%union.anon.3 = type { i32 }

; Function Attrs: alwaysinline nounwind uwtable
define internal i32 @zval_gc_flags(i32 noundef %0) #3 {
  %2 = alloca i32, align 4
  store i32 %0, ptr %2, align 4, !tbaa !24
  %3 = load i32, ptr %2, align 4, !tbaa !24
  %4 = lshr i32 %3, 0
  %5 = and i32 %4, 1008
  ret i32 %5
}

; Function Attrs: nounwind uwtable
define hidden void @php_filter_add_slashes(ptr noundef %0, i64 noundef %1, ptr noundef %2, ptr noundef %3) #0 {
  %5 = alloca ptr, align 8
  %6 = alloca i64, align 8
  %7 = alloca ptr, align 8
  %8 = alloca ptr, align 8
  %9 = alloca ptr, align 8
  %10 = alloca ptr, align 8
  %11 = alloca ptr, align 8
  store ptr %0, ptr %5, align 8, !tbaa !4
  store i64 %1, ptr %6, align 8, !tbaa !9
  store ptr %2, ptr %7, align 8, !tbaa !4
  store ptr %3, ptr %8, align 8, !tbaa !11
  call void @llvm.lifetime.start.p0(i64 8, ptr %9) #12
  %12 = load ptr, ptr %5, align 8, !tbaa !4
  %13 = getelementptr inbounds nuw %struct._zval_struct, ptr %12, i32 0, i32 0
  %14 = load ptr, ptr %13, align 8, !tbaa !13
  %15 = call ptr @php_addslashes(ptr noundef %14)
  store ptr %15, ptr %9, align 8, !tbaa !18
  %16 = load ptr, ptr %5, align 8, !tbaa !4
  call void @zval_ptr_dtor(ptr noundef %16)
  br label %17

17:                                               ; preds = %4
  call void @llvm.lifetime.start.p0(i64 8, ptr %10) #12
  %18 = load ptr, ptr %5, align 8, !tbaa !4
  store ptr %18, ptr %10, align 8, !tbaa !4
  call void @llvm.lifetime.start.p0(i64 8, ptr %11) #12
  %19 = load ptr, ptr %9, align 8, !tbaa !18
  store ptr %19, ptr %11, align 8, !tbaa !18
  %20 = load ptr, ptr %11, align 8, !tbaa !18
  %21 = load ptr, ptr %10, align 8, !tbaa !4
  %22 = getelementptr inbounds nuw %struct._zval_struct, ptr %21, i32 0, i32 0
  store ptr %20, ptr %22, align 8, !tbaa !13
  %23 = load ptr, ptr %11, align 8, !tbaa !18
  %24 = getelementptr inbounds nuw %struct._zend_string, ptr %23, i32 0, i32 0
  %25 = getelementptr inbounds nuw %struct._zend_refcounted_h, ptr %24, i32 0, i32 1
  %26 = load i32, ptr %25, align 4, !tbaa !13
  %27 = call i32 @zval_gc_flags(i32 noundef %26)
  %28 = and i32 %27, 64
  %29 = icmp ne i32 %28, 0
  %30 = select i1 %29, i32 6, i32 262
  %31 = load ptr, ptr %10, align 8, !tbaa !4
  %32 = getelementptr inbounds nuw %struct._zval_struct, ptr %31, i32 0, i32 1
  store i32 %30, ptr %32, align 8, !tbaa !13
  call void @llvm.lifetime.end.p0(i64 8, ptr %11) #12
  call void @llvm.lifetime.end.p0(i64 8, ptr %10) #12
  br label %33

33:                                               ; preds = %17
  br label %34

34:                                               ; preds = %33
  call void @llvm.lifetime.end.p0(i64 8, ptr %9) #12
  ret void
}