; Function Attrs: nounwind uwtable
define hidden void @php_filter_add_slashes(ptr noundef %0, i64 noundef %1, ptr noundef readnone captures(none) %2, ptr noundef readnone captures(none) %3) local_unnamed_addr #0 {
  %5 = load ptr, ptr %0, align 8, !tbaa !4
  %6 = tail call ptr @php_addslashes(ptr noundef %5) #9
  tail call void @zval_ptr_dtor(ptr noundef nonnull %0) #9
  store ptr %6, ptr %0, align 8, !tbaa !4
  %7 = getelementptr inbounds nuw i8, ptr %6, i64 4
  %8 = load i32, ptr %7, align 4, !tbaa !4
  %9 = and i32 %8, 64
  %.not = icmp eq i32 %9, 0
  %10 = select i1 %.not, i32 262, i32 6
  %11 = getelementptr inbounds nuw i8, ptr %0, i64 8
  store i32 %10, ptr %11, align 8, !tbaa !4
  ret void
}